target datalayout = "e-m:e-p270:32:32-p271:32:32-p272:64:64-i64:64-i128:128-f80:128-n8:16:32:64-S128"
target triple = "x86_64-pc-linux-gnu"

%struct._lv_buttonmatrix_t = type { %struct._lv_obj_t, ptr, ptr, ptr, i32, i32, i32, i8 }
%struct._lv_obj_t = type { ptr, ptr, ptr, ptr, ptr, %struct.lv_area_t, i32, i16, i16 }
%struct.lv_area_t = type { i32, i32, i32, i32 }

; Function Attrs: nounwind uwtable
define zeroext i1 @lv_buttonmatrix_has_button_ctrl(ptr noundef %0, i32 noundef %1, i32 noundef %2) #0 {
  %4 = alloca i1, align 1
  %5 = alloca ptr, align 8
  %6 = alloca i32, align 4
  %7 = alloca i32, align 4
  %8 = alloca ptr, align 8
  %9 = alloca i32, align 4
  store ptr %0, ptr %5, align 8, !tbaa !3
  store i32 %1, ptr %6, align 4, !tbaa !18
  store i32 %2, ptr %7, align 4, !tbaa !18
  br label %10

10:                                               ; preds = %3
  br label %11

11:                                               ; preds = %10
  call void @llvm.lifetime.start.p0(i64 8, ptr %8) #4
  %12 = load ptr, ptr %5, align 8, !tbaa !3
  store ptr %12, ptr %8, align 8, !tbaa !3
  %13 = load i32, ptr %6, align 4, !tbaa !18
  %14 = load ptr, ptr %8, align 8, !tbaa !3
  %15 = getelementptr inbounds nuw %struct._lv_buttonmatrix_t, ptr %14, i32 0, i32 4
  %16 = load i32, ptr %15, align 8, !tbaa !7
  %17 = icmp uge i32 %13, %16
  br i1 %17, label %18, label %19

18:                                               ; preds = %11
  store i1 false, ptr %4, align 1
  store i32 1, ptr %9, align 4
  br label %31

19:                                               ; preds = %11
  %20 = load ptr, ptr %8, align 8, !tbaa !3
  %21 = getelementptr inbounds nuw %struct._lv_buttonmatrix_t, ptr %20, i32 0, i32 3
  %22 = load ptr, ptr %21, align 8, !tbaa !16
  %23 = load i32, ptr %6, align 4, !tbaa !18
  %24 = zext i32 %23 to i64
  %25 = getelementptr inbounds nuw i32, ptr %22, i64 %24
  %26 = load i32, ptr %25, align 4, !tbaa !18
  %27 = load i32, ptr %7, align 4, !tbaa !18
  %28 = and i32 %26, %27
  %29 = load i32, ptr %7, align 4, !tbaa !18
  %30 = icmp eq i32 %28, %29
  store i1 %30, ptr %4, align 1
  store i32 1, ptr %9, align 4
  br label %31

31:                                               ; preds = %19, %18
  call void @llvm.lifetime.end.p0(i64 8, ptr %8) #4
  %32 = load i1, ptr %4, align 1
  ret i1 %32
}