; Function Attrs: mustprogress nofree norecurse nosync nounwind willreturn memory(read, inaccessiblemem: none) uwtable
define zeroext i1 @lv_buttonmatrix_has_button_ctrl(ptr nocapture noundef readonly %0, i32 noundef %1, i32 noundef %2) local_unnamed_addr #4 {
  %4 = getelementptr inbounds nuw i8, ptr %0, i64 88
  %5 = load i32, ptr %4, align 8, !tbaa !3
  %.not = icmp ult i32 %1, %5
  br i1 %.not, label %6, label %14

6:                                                ; preds = %3
  %7 = getelementptr inbounds nuw i8, ptr %0, i64 80
  %8 = load ptr, ptr %7, align 8, !tbaa !15
  %9 = zext i32 %1 to i64
  %10 = getelementptr inbounds nuw i32, ptr %8, i64 %9
  %11 = load i32, ptr %10, align 4, !tbaa !21
  %12 = and i32 %11, %2
  %13 = icmp eq i32 %12, %2
  br label %14

14:                                               ; preds = %3, %6
  %.0 = phi i1 [ %13, %6 ], [ false, %3 ]
  ret i1 %.0
}